; Function Attrs: alwaysinline norecurse nounwind uwtable
define internal void @_ZNK4ncnn18RMSNorm_x86_avx51215forward_inplaceERNS_3MatERKNS_6OptionE.omp_outlined(ptr noalias noundef readonly captures(none) %0, ptr noalias readnone captures(none) %1, ptr noundef nonnull readonly align 4 captures(none) dereferenceable(4) %2, ptr noundef nonnull readonly align 8 captures(none) dereferenceable(72) %3, ptr noundef readonly captures(none) %4, ptr noundef nonnull readonly align 4 captures(none) dereferenceable(4) %5, ptr noundef nonnull readonly align 4 captures(none) dereferenceable(4) %6) #6 personality ptr @__gxx_personality_v0 {
  %8 = alloca i32, align 4
  %9 = alloca i32, align 4
  %10 = alloca i32, align 4
  %11 = alloca i32, align 4
  %12 = load i32, ptr %2, align 4, !tbaa !20
  %13 = icmp sgt i32 %12, 0
  br i1 %13, label %14, label %39

14:                                               ; preds = %7
  %15 = add nsw i32 %12, -1
  call void @llvm.lifetime.start.p0(i64 4, ptr nonnull %8) #7
  store i32 0, ptr %8, align 4, !tbaa !20
  call void @llvm.lifetime.start.p0(i64 4, ptr nonnull %9) #7
  store i32 %15, ptr %9, align 4, !tbaa !20
  call void @llvm.lifetime.start.p0(i64 4, ptr nonnull %10) #7
  store i32 1, ptr %10, align 4, !tbaa !20
  call void @llvm.lifetime.start.p0(i64 4, ptr nonnull %11) #7
  store i32 0, ptr %11, align 4, !tbaa !20
  %16 = load i32, ptr %0, align 4, !tbaa !20
  call void @__kmpc_for_static_init_4(ptr nonnull @1, i32 %16, i32 34, ptr nonnull %11, ptr nonnull %8, ptr nonnull %9, ptr nonnull %10, i32 1, i32 1)
  %17 = load i32, ptr %9, align 4, !tbaa !20
  %18 = call i32 @llvm.smin.i32(i32 %17, i32 %15)
  store i32 %18, ptr %9, align 4, !tbaa !20
  %19 = load i32, ptr %8, align 4, !tbaa !20
  %.not17 = icmp sgt i32 %19, %18
  br i1 %.not17, label %._crit_edge, label %.lr.ph

.lr.ph:                                           ; preds = %14
  %20 = getelementptr inbounds nuw i8, ptr %3, i64 44
  %21 = getelementptr inbounds nuw i8, ptr %3, i64 16
  %22 = getelementptr inbounds nuw i8, ptr %4, i64 224
  %23 = getelementptr inbounds nuw i8, ptr %4, i64 212
  %24 = sext i32 %19 to i64
  br label %25

25:                                               ; preds = %.lr.ph, %25
  %indvars.iv = phi i64 [ %24, %.lr.ph ], [ %indvars.iv.next, %25 ]
  %26 = load ptr, ptr %3, align 8, !tbaa !16
  %27 = load i32, ptr %20, align 4, !tbaa !19
  %28 = sext i32 %27 to i64
  %29 = mul nsw i64 %indvars.iv, %28
  %30 = load i64, ptr %21, align 8, !tbaa !66
  %31 = mul i64 %29, %30
  %32 = getelementptr inbounds nuw i8, ptr %26, i64 %31
  %33 = load ptr, ptr %22, align 8, !tbaa !16
  %34 = load float, ptr %23, align 4, !tbaa !24
  %35 = load i32, ptr %5, align 4, !tbaa !20
  %36 = load i32, ptr %6, align 4, !tbaa !20
  call fastcc void @_ZN4ncnnL7rmsnormEPfPKffii(ptr noundef %32, ptr noundef %33, float noundef nofpclass(nan inf) %34, i32 noundef %35, i32 noundef %36)
  %indvars.iv.next = add nsw i64 %indvars.iv, 1
  %37 = load i32, ptr %9, align 4, !tbaa !20
  %38 = sext i32 %37 to i64
  %.not.not = icmp slt i64 %indvars.iv, %38
  br i1 %.not.not, label %25, label %._crit_edge

._crit_edge:                                      ; preds = %25, %14
  call void @__kmpc_for_static_fini(ptr nonnull @1, i32 %16)
  call void @llvm.lifetime.end.p0(i64 4, ptr nonnull %11) #7
  call void @llvm.lifetime.end.p0(i64 4, ptr nonnull %10) #7
  call void @llvm.lifetime.end.p0(i64 4, ptr nonnull %9) #7
  call void @llvm.lifetime.end.p0(i64 4, ptr nonnull %8) #7
  br label %39

39:                                               ; preds = %._crit_edge, %7
  ret void
}